target datalayout = "e-m:e-p270:32:32-p271:32:32-p272:64:64-i64:64-i128:128-f80:128-n8:16:32:64-S128"
target triple = "x86_64-pc-linux-gnu"

%struct._zend_function_entry = type { ptr, ptr, ptr, i32, i32, ptr, ptr }
%struct._zend_object_handlers = type { i32, ptr, ptr, ptr, ptr, ptr, ptr, ptr, ptr, ptr, ptr, ptr, ptr, ptr, ptr, ptr, ptr, ptr, ptr, ptr, ptr, ptr, ptr, ptr, ptr }
%struct._XML_Memory_Handling_Suite = type { ptr, ptr, ptr }
%struct._zend_array = type { %struct._zend_refcounted_h, %union.anon.1, i32, %union.anon.2, i32, i32, i32, i32, i64, ptr }
%struct._zend_refcounted_h = type { i32, %union.anon.0 }
%union.anon.0 = type { i32 }
%union.anon.1 = type { i32 }
%union.anon.2 = type { ptr }
%struct._zend_class_entry = type { i8, ptr, %union.anon, i32, i32, i32, i32, ptr, ptr, ptr, %struct._zend_array, %struct._zend_array, %struct._zend_array, ptr, ptr, ptr, ptr, ptr, ptr, ptr, ptr, ptr, ptr, ptr, ptr, ptr, ptr, ptr, ptr, ptr, ptr, ptr, %union.anon.3, ptr, ptr, ptr, ptr, i32, i32, %union.anon.4, ptr, ptr, ptr, ptr, i32, ptr, ptr, %union.anon.5 }
%union.anon = type { ptr }
%union.anon.3 = type { ptr }
%union.anon.4 = type { ptr }
%union.anon.5 = type { %struct.anon.6 }
%struct.anon.6 = type { ptr, i32, i32 }
%struct.anon.7 = type { ptr, ptr }

@xml_parser_ce = internal global ptr null, align 8
@xml_parser_object_handlers = internal global %struct._zend_object_handlers zeroinitializer, align 8
@std_object_handlers = external constant %struct._zend_object_handlers, align 8
@php_xml_mem_hdlrs = internal global %struct._XML_Memory_Handling_Suite zeroinitializer, align 8
@.str.50 = private unnamed_addr constant [7 x i8] c"libxml\00", align 1
@.str.73 = private unnamed_addr constant [10 x i8] c"XMLParser\00", align 1
@zend_string_init_interned = external global ptr, align 8
@class_XMLParser_methods = internal constant [1 x %struct._zend_function_entry] zeroinitializer, align 16
@.str.90 = private unnamed_addr constant [15 x i8] c"XML_ERROR_NONE\00", align 1
@.str.91 = private unnamed_addr constant [20 x i8] c"XML_ERROR_NO_MEMORY\00", align 1
@.str.92 = private unnamed_addr constant [17 x i8] c"XML_ERROR_SYNTAX\00", align 1
@.str.93 = private unnamed_addr constant [22 x i8] c"XML_ERROR_NO_ELEMENTS\00", align 1
@.str.94 = private unnamed_addr constant [24 x i8] c"XML_ERROR_INVALID_TOKEN\00", align 1
@.str.95 = private unnamed_addr constant [25 x i8] c"XML_ERROR_UNCLOSED_TOKEN\00", align 1
@.str.96 = private unnamed_addr constant [23 x i8] c"XML_ERROR_PARTIAL_CHAR\00", align 1
@.str.97 = private unnamed_addr constant [23 x i8] c"XML_ERROR_TAG_MISMATCH\00", align 1
@.str.98 = private unnamed_addr constant [30 x i8] c"XML_ERROR_DUPLICATE_ATTRIBUTE\00", align 1
@.str.99 = private unnamed_addr constant [33 x i8] c"XML_ERROR_JUNK_AFTER_DOC_ELEMENT\00", align 1
@.str.100 = private unnamed_addr constant [27 x i8] c"XML_ERROR_PARAM_ENTITY_REF\00", align 1
@.str.101 = private unnamed_addr constant [27 x i8] c"XML_ERROR_UNDEFINED_ENTITY\00", align 1
@.str.102 = private unnamed_addr constant [31 x i8] c"XML_ERROR_RECURSIVE_ENTITY_REF\00", align 1
@.str.103 = private unnamed_addr constant [23 x i8] c"XML_ERROR_ASYNC_ENTITY\00", align 1
@.str.104 = private unnamed_addr constant [23 x i8] c"XML_ERROR_BAD_CHAR_REF\00", align 1
@.str.105 = private unnamed_addr constant [28 x i8] c"XML_ERROR_BINARY_ENTITY_REF\00", align 1
@.str.106 = private unnamed_addr constant [40 x i8] c"XML_ERROR_ATTRIBUTE_EXTERNAL_ENTITY_REF\00", align 1
@.str.107 = private unnamed_addr constant [27 x i8] c"XML_ERROR_MISPLACED_XML_PI\00", align 1
@.str.108 = private unnamed_addr constant [27 x i8] c"XML_ERROR_UNKNOWN_ENCODING\00", align 1
@.str.109 = private unnamed_addr constant [29 x i8] c"XML_ERROR_INCORRECT_ENCODING\00", align 1
@.str.110 = private unnamed_addr constant [33 x i8] c"XML_ERROR_UNCLOSED_CDATA_SECTION\00", align 1
@.str.111 = private unnamed_addr constant [35 x i8] c"XML_ERROR_EXTERNAL_ENTITY_HANDLING\00", align 1
@.str.112 = private unnamed_addr constant [24 x i8] c"XML_OPTION_CASE_FOLDING\00", align 1
@.str.113 = private unnamed_addr constant [27 x i8] c"XML_OPTION_TARGET_ENCODING\00", align 1
@.str.114 = private unnamed_addr constant [25 x i8] c"XML_OPTION_SKIP_TAGSTART\00", align 1
@.str.115 = private unnamed_addr constant [22 x i8] c"XML_OPTION_SKIP_WHITE\00", align 1
@.str.116 = private unnamed_addr constant [22 x i8] c"XML_OPTION_PARSE_HUGE\00", align 1
@.str.117 = private unnamed_addr constant [13 x i8] c"XML_SAX_IMPL\00", align 1

; Function Attrs: nounwind uwtable
define internal void @register_xml_symbols(i32 noundef %0) #0 {
  %2 = alloca i32, align 4
  store i32 %0, ptr %2, align 4
  %3 = load i32, ptr %2, align 4
  call void @zend_register_long_constant(ptr noundef @.str.90, i64 noundef 14, i64 noundef 0, i32 noundef 1, i32 noundef %3)
  %4 = load i32, ptr %2, align 4
  call void @zend_register_long_constant(ptr noundef @.str.91, i64 noundef 19, i64 noundef 1, i32 noundef 1, i32 noundef %4)
  %5 = load i32, ptr %2, align 4
  call void @zend_register_long_constant(ptr noundef @.str.92, i64 noundef 16, i64 noundef 2, i32 noundef 1, i32 noundef %5)
  %6 = load i32, ptr %2, align 4
  call void @zend_register_long_constant(ptr noundef @.str.93, i64 noundef 21, i64 noundef 3, i32 noundef 1, i32 noundef %6)
  %7 = load i32, ptr %2, align 4
  call void @zend_register_long_constant(ptr noundef @.str.94, i64 noundef 23, i64 noundef 4, i32 noundef 1, i32 noundef %7)
  %8 = load i32, ptr %2, align 4
  call void @zend_register_long_constant(ptr noundef @.str.95, i64 noundef 24, i64 noundef 5, i32 noundef 1, i32 noundef %8)
  %9 = load i32, ptr %2, align 4
  call void @zend_register_long_constant(ptr noundef @.str.96, i64 noundef 22, i64 noundef 6, i32 noundef 1, i32 noundef %9)
  %10 = load i32, ptr %2, align 4
  call void @zend_register_long_constant(ptr noundef @.str.97, i64 noundef 22, i64 noundef 7, i32 noundef 1, i32 noundef %10)
  %11 = load i32, ptr %2, align 4
  call void @zend_register_long_constant(ptr noundef @.str.98, i64 noundef 29, i64 noundef 8, i32 noundef 1, i32 noundef %11)
  %12 = load i32, ptr %2, align 4
  call void @zend_register_long_constant(ptr noundef @.str.99, i64 noundef 32, i64 noundef 9, i32 noundef 1, i32 noundef %12)
  %13 = load i32, ptr %2, align 4
  call void @zend_register_long_constant(ptr noundef @.str.100, i64 noundef 26, i64 noundef 10, i32 noundef 1, i32 noundef %13)
  %14 = load i32, ptr %2, align 4
  call void @zend_register_long_constant(ptr noundef @.str.101, i64 noundef 26, i64 noundef 11, i32 noundef 1, i32 noundef %14)
  %15 = load i32, ptr %2, align 4
  call void @zend_register_long_constant(ptr noundef @.str.102, i64 noundef 30, i64 noundef 12, i32 noundef 1, i32 noundef %15)
  %16 = load i32, ptr %2, align 4
  call void @zend_register_long_constant(ptr noundef @.str.103, i64 noundef 22, i64 noundef 13, i32 noundef 1, i32 noundef %16)
  %17 = load i32, ptr %2, align 4
  call void @zend_register_long_constant(ptr noundef @.str.104, i64 noundef 22, i64 noundef 14, i32 noundef 1, i32 noundef %17)
  %18 = load i32, ptr %2, align 4
  call void @zend_register_long_constant(ptr noundef @.str.105, i64 noundef 27, i64 noundef 15, i32 noundef 1, i32 noundef %18)
  %19 = load i32, ptr %2, align 4
  call void @zend_register_long_constant(ptr noundef @.str.106, i64 noundef 39, i64 noundef 16, i32 noundef 1, i32 noundef %19)
  %20 = load i32, ptr %2, align 4
  call void @zend_register_long_constant(ptr noundef @.str.107, i64 noundef 26, i64 noundef 17, i32 noundef 1, i32 noundef %20)
  %21 = load i32, ptr %2, align 4
  call void @zend_register_long_constant(ptr noundef @.str.108, i64 noundef 26, i64 noundef 18, i32 noundef 1, i32 noundef %21)
  %22 = load i32, ptr %2, align 4
  call void @zend_register_long_constant(ptr noundef @.str.109, i64 noundef 28, i64 noundef 19, i32 noundef 1, i32 noundef %22)
  %23 = load i32, ptr %2, align 4
  call void @zend_register_long_constant(ptr noundef @.str.110, i64 noundef 32, i64 noundef 20, i32 noundef 1, i32 noundef %23)
  %24 = load i32, ptr %2, align 4
  call void @zend_register_long_constant(ptr noundef @.str.111, i64 noundef 34, i64 noundef 21, i32 noundef 1, i32 noundef %24)
  %25 = load i32, ptr %2, align 4
  call void @zend_register_long_constant(ptr noundef @.str.112, i64 noundef 23, i64 noundef 1, i32 noundef 1, i32 noundef %25)
  %26 = load i32, ptr %2, align 4
  call void @zend_register_long_constant(ptr noundef @.str.113, i64 noundef 26, i64 noundef 2, i32 noundef 1, i32 noundef %26)
  %27 = load i32, ptr %2, align 4
  call void @zend_register_long_constant(ptr noundef @.str.114, i64 noundef 24, i64 noundef 3, i32 noundef 1, i32 noundef %27)
  %28 = load i32, ptr %2, align 4
  call void @zend_register_long_constant(ptr noundef @.str.115, i64 noundef 21, i64 noundef 4, i32 noundef 1, i32 noundef %28)
  %29 = load i32, ptr %2, align 4
  call void @zend_register_long_constant(ptr noundef @.str.116, i64 noundef 21, i64 noundef 5, i32 noundef 1, i32 noundef %29)
  %30 = load i32, ptr %2, align 4
  call void @zend_register_string_constant(ptr noundef @.str.117, i64 noundef 12, ptr noundef @.str.50, i32 noundef 1, i32 noundef %30)
  ret void
}

; Function Attrs: nounwind uwtable
define internal ptr @register_class_XMLParser() #0 {
  %1 = alloca %struct._zend_class_entry, align 8
  %2 = alloca ptr, align 8
  call void @llvm.memset.p0.i64(ptr align 8 %1, i8 0, i64 512, i1 false)
  %3 = load ptr, ptr @zend_string_init_interned, align 8
  %4 = call ptr %3(ptr noundef @.str.73, i64 noundef 9, i1 noundef zeroext true)
  %5 = getelementptr inbounds %struct._zend_class_entry, ptr %1, i32 0, i32 1
  store ptr %4, ptr %5, align 8
  %6 = getelementptr inbounds %struct._zend_class_entry, ptr %1, i32 0, i32 29
  store ptr @std_object_handlers, ptr %6, align 8
  %7 = getelementptr inbounds %struct._zend_class_entry, ptr %1, i32 0, i32 47
  %8 = getelementptr inbounds %struct.anon.7, ptr %7, i32 0, i32 0
  store ptr @class_XMLParser_methods, ptr %8, align 8
  %9 = call ptr @zend_register_internal_class_ex(ptr noundef %1, ptr noundef null)
  store ptr %9, ptr %2, align 8
  %10 = load ptr, ptr %2, align 8
  %11 = getelementptr inbounds %struct._zend_class_entry, ptr %10, i32 0, i32 4
  %12 = load i32, ptr %11, align 4
  %13 = or i32 %12, 536879136
  store i32 %13, ptr %11, align 4
  %14 = load ptr, ptr %2, align 8
  ret ptr %14
}

; Function Attrs: nounwind uwtable
define hidden i32 @zm_startup_xml(i32 noundef %0, i32 noundef %1) #0 {
  %3 = alloca i32, align 4
  %4 = alloca i32, align 4
  store i32 %0, ptr %3, align 4
  store i32 %1, ptr %4, align 4
  %5 = call ptr @register_class_XMLParser()
  store ptr %5, ptr @xml_parser_ce, align 8
  %6 = load ptr, ptr @xml_parser_ce, align 8
  %7 = getelementptr inbounds %struct._zend_class_entry, ptr %6, i32 0, i32 32
  store ptr @xml_parser_create_object, ptr %7, align 8
  %8 = load ptr, ptr @xml_parser_ce, align 8
  %9 = getelementptr inbounds %struct._zend_class_entry, ptr %8, i32 0, i32 29
  store ptr @xml_parser_object_handlers, ptr %9, align 8
  call void @llvm.memcpy.p0.p0.i64(ptr align 8 @xml_parser_object_handlers, ptr align 8 @std_object_handlers, i64 200, i1 false)
  store i32 520, ptr @xml_parser_object_handlers, align 8
  store ptr @xml_parser_free_obj, ptr getelementptr inbounds (%struct._zend_object_handlers, ptr @xml_parser_object_handlers, i32 0, i32 1), align 8
  store ptr @xml_parser_get_gc, ptr getelementptr inbounds (%struct._zend_object_handlers, ptr @xml_parser_object_handlers, i32 0, i32 21), align 8
  store ptr @xml_parser_get_constructor, ptr getelementptr inbounds (%struct._zend_object_handlers, ptr @xml_parser_object_handlers, i32 0, i32 15), align 8
  store ptr null, ptr getelementptr inbounds (%struct._zend_object_handlers, ptr @xml_parser_object_handlers, i32 0, i32 3), align 8
  store ptr @zend_objects_not_comparable, ptr getelementptr inbounds (%struct._zend_object_handlers, ptr @xml_parser_object_handlers, i32 0, i32 23), align 8
  %10 = load i32, ptr %4, align 4
  call void @register_xml_symbols(i32 noundef %10)
  store ptr @php_xml_malloc_wrapper, ptr @php_xml_mem_hdlrs, align 8
  store ptr @php_xml_realloc_wrapper, ptr getelementptr inbounds (%struct._XML_Memory_Handling_Suite, ptr @php_xml_mem_hdlrs, i32 0, i32 1), align 8
  store ptr @php_xml_free_wrapper, ptr getelementptr inbounds (%struct._XML_Memory_Handling_Suite, ptr @php_xml_mem_hdlrs, i32 0, i32 2), align 8
  ret i32 0
}