; Function Attrs: nounwind uwtable
define hidden noundef i32 @zm_startup_xml(i32 %0, i32 noundef %1) #0 {
  %3 = alloca %struct._zend_class_entry, align 8
  call void @llvm.lifetime.start.p0(i64 512, ptr nonnull %3)
  call void @llvm.memset.p0.i64(ptr noundef nonnull align 8 dereferenceable(512) %3, i8 0, i64 512, i1 false)
  %4 = load ptr, ptr @zend_string_init_interned, align 8
  %5 = tail call ptr %4(ptr noundef nonnull @.str.73, i64 noundef 9, i1 noundef zeroext true) #16
  %6 = getelementptr inbounds i8, ptr %3, i64 8
  store ptr %5, ptr %6, align 8
  %7 = getelementptr inbounds i8, ptr %3, i64 360
  store ptr @std_object_handlers, ptr %7, align 8
  %8 = getelementptr inbounds i8, ptr %3, i64 496
  store ptr @class_XMLParser_methods, ptr %8, align 8
  %9 = call ptr @zend_register_internal_class_ex(ptr noundef nonnull %3, ptr noundef null) #16
  %10 = getelementptr inbounds i8, ptr %9, i64 28
  %11 = load i32, ptr %10, align 4
  %12 = or i32 %11, 536879136
  store i32 %12, ptr %10, align 4
  call void @llvm.lifetime.end.p0(i64 512, ptr nonnull %3)
  store ptr %9, ptr @xml_parser_ce, align 8
  %13 = getelementptr inbounds i8, ptr %9, i64 384
  store ptr @xml_parser_create_object, ptr %13, align 8
  %14 = getelementptr inbounds i8, ptr %9, i64 360
  store ptr @xml_parser_object_handlers, ptr %14, align 8
  call void @llvm.memcpy.p0.p0.i64(ptr noundef nonnull align 8 dereferenceable(200) @xml_parser_object_handlers, ptr noundef nonnull align 8 dereferenceable(200) @std_object_handlers, i64 200, i1 false)
  store i32 520, ptr @xml_parser_object_handlers, align 8
  store ptr @xml_parser_free_obj, ptr getelementptr inbounds (%struct._zend_object_handlers, ptr @xml_parser_object_handlers, i64 0, i32 1), align 8
  store ptr @xml_parser_get_gc, ptr getelementptr inbounds (%struct._zend_object_handlers, ptr @xml_parser_object_handlers, i64 0, i32 21), align 8
  store ptr @xml_parser_get_constructor, ptr getelementptr inbounds (%struct._zend_object_handlers, ptr @xml_parser_object_handlers, i64 0, i32 15), align 8
  store ptr null, ptr getelementptr inbounds (%struct._zend_object_handlers, ptr @xml_parser_object_handlers, i64 0, i32 3), align 8
  store ptr @zend_objects_not_comparable, ptr getelementptr inbounds (%struct._zend_object_handlers, ptr @xml_parser_object_handlers, i64 0, i32 23), align 8
  call void @zend_register_long_constant(ptr noundef nonnull @.str.90, i64 noundef 14, i64 noundef 0, i32 noundef 1, i32 noundef %1) #16
  call void @zend_register_long_constant(ptr noundef nonnull @.str.91, i64 noundef 19, i64 noundef 1, i32 noundef 1, i32 noundef %1) #16
  call void @zend_register_long_constant(ptr noundef nonnull @.str.92, i64 noundef 16, i64 noundef 2, i32 noundef 1, i32 noundef %1) #16
  call void @zend_register_long_constant(ptr noundef nonnull @.str.93, i64 noundef 21, i64 noundef 3, i32 noundef 1, i32 noundef %1) #16
  call void @zend_register_long_constant(ptr noundef nonnull @.str.94, i64 noundef 23, i64 noundef 4, i32 noundef 1, i32 noundef %1) #16
  call void @zend_register_long_constant(ptr noundef nonnull @.str.95, i64 noundef 24, i64 noundef 5, i32 noundef 1, i32 noundef %1) #16
  call void @zend_register_long_constant(ptr noundef nonnull @.str.96, i64 noundef 22, i64 noundef 6, i32 noundef 1, i32 noundef %1) #16
  call void @zend_register_long_constant(ptr noundef nonnull @.str.97, i64 noundef 22, i64 noundef 7, i32 noundef 1, i32 noundef %1) #16
  call void @zend_register_long_constant(ptr noundef nonnull @.str.98, i64 noundef 29, i64 noundef 8, i32 noundef 1, i32 noundef %1) #16
  call void @zend_register_long_constant(ptr noundef nonnull @.str.99, i64 noundef 32, i64 noundef 9, i32 noundef 1, i32 noundef %1) #16
  call void @zend_register_long_constant(ptr noundef nonnull @.str.100, i64 noundef 26, i64 noundef 10, i32 noundef 1, i32 noundef %1) #16
  call void @zend_register_long_constant(ptr noundef nonnull @.str.101, i64 noundef 26, i64 noundef 11, i32 noundef 1, i32 noundef %1) #16
  call void @zend_register_long_constant(ptr noundef nonnull @.str.102, i64 noundef 30, i64 noundef 12, i32 noundef 1, i32 noundef %1) #16
  call void @zend_register_long_constant(ptr noundef nonnull @.str.103, i64 noundef 22, i64 noundef 13, i32 noundef 1, i32 noundef %1) #16
  call void @zend_register_long_constant(ptr noundef nonnull @.str.104, i64 noundef 22, i64 noundef 14, i32 noundef 1, i32 noundef %1) #16
  call void @zend_register_long_constant(ptr noundef nonnull @.str.105, i64 noundef 27, i64 noundef 15, i32 noundef 1, i32 noundef %1) #16
  call void @zend_register_long_constant(ptr noundef nonnull @.str.106, i64 noundef 39, i64 noundef 16, i32 noundef 1, i32 noundef %1) #16
  call void @zend_register_long_constant(ptr noundef nonnull @.str.107, i64 noundef 26, i64 noundef 17, i32 noundef 1, i32 noundef %1) #16
  call void @zend_register_long_constant(ptr noundef nonnull @.str.108, i64 noundef 26, i64 noundef 18, i32 noundef 1, i32 noundef %1) #16
  call void @zend_register_long_constant(ptr noundef nonnull @.str.109, i64 noundef 28, i64 noundef 19, i32 noundef 1, i32 noundef %1) #16
  call void @zend_register_long_constant(ptr noundef nonnull @.str.110, i64 noundef 32, i64 noundef 20, i32 noundef 1, i32 noundef %1) #16
  call void @zend_register_long_constant(ptr noundef nonnull @.str.111, i64 noundef 34, i64 noundef 21, i32 noundef 1, i32 noundef %1) #16
  call void @zend_register_long_constant(ptr noundef nonnull @.str.112, i64 noundef 23, i64 noundef 1, i32 noundef 1, i32 noundef %1) #16
  call void @zend_register_long_constant(ptr noundef nonnull @.str.113, i64 noundef 26, i64 noundef 2, i32 noundef 1, i32 noundef %1) #16
  call void @zend_register_long_constant(ptr noundef nonnull @.str.114, i64 noundef 24, i64 noundef 3, i32 noundef 1, i32 noundef %1) #16
  call void @zend_register_long_constant(ptr noundef nonnull @.str.115, i64 noundef 21, i64 noundef 4, i32 noundef 1, i32 noundef %1) #16
  call void @zend_register_long_constant(ptr noundef nonnull @.str.116, i64 noundef 21, i64 noundef 5, i32 noundef 1, i32 noundef %1) #16
  call void @zend_register_string_constant(ptr noundef nonnull @.str.117, i64 noundef 12, ptr noundef nonnull @.str.50, i32 noundef 1, i32 noundef %1) #16
  store ptr @php_xml_malloc_wrapper, ptr @php_xml_mem_hdlrs, align 8
  store ptr @php_xml_realloc_wrapper, ptr getelementptr inbounds (%struct._XML_Memory_Handling_Suite, ptr @php_xml_mem_hdlrs, i64 0, i32 1), align 8
  store ptr @php_xml_free_wrapper, ptr getelementptr inbounds (%struct._XML_Memory_Handling_Suite, ptr @php_xml_mem_hdlrs, i64 0, i32 2), align 8
  ret i32 0
}